target datalayout = "e-m:e-p270:32:32-p271:32:32-p272:64:64-i64:64-i128:128-f80:128-n8:16:32:64-S128"
target triple = "x86_64-unknown-linux-gnu"

%struct.QemuMutex = type { %union.pthread_mutex_t, i8 }
%union.pthread_mutex_t = type { %struct.__pthread_mutex_s }
%struct.__pthread_mutex_s = type { i32, i32, i32, i32, i32, i16, i16, %struct.__pthread_internal_list }
%struct.__pthread_internal_list = type { ptr, ptr }
%struct.QTailQLink = type { ptr, ptr }
%struct.MirrorBlockJob = type { %struct.BlockJob, ptr, ptr, ptr, ptr, ptr, ptr, ptr, i8, i32, i8, i32, i32, i32, i8, i8, i64, i64, i64, ptr, ptr, ptr, ptr, %struct.anon.14, i32, i64, ptr, i32, i64, %union.anon.15, i32, i8, i32, i32, i8, i32, i64, i8, i8 }
%struct.BlockJob = type { %struct.Job, i32, i64, %struct.RateLimit, ptr, %struct.Notifier, %struct.Notifier, %struct.Notifier, %struct.Notifier, %struct.Notifier, ptr }
%struct.Job = type { ptr, ptr, ptr, i8, i8, ptr, ptr, %struct.ProgressMeter, ptr, i32, i32, %struct.QEMUTimer, i32, i8, i8, i8, i8, i8, i8, i32, ptr, %struct.NotifierList, %struct.NotifierList, %struct.NotifierList, %struct.NotifierList, %struct.NotifierList, %struct.anon.11, ptr, %struct.anon.12 }
%struct.ProgressMeter = type { i64, i64, %struct.QemuMutex }
%struct.QEMUTimer = type { i64, ptr, ptr, ptr, ptr, i32, i32 }
%struct.NotifierList = type { %struct.anon.10 }
%struct.anon.10 = type { ptr }
%struct.anon.11 = type { ptr, ptr }
%struct.anon.12 = type { ptr, ptr }
%struct.RateLimit = type { %struct.QemuMutex, i64, i64, i64, i64, i64 }
%struct.Notifier = type { ptr, %struct.anon.13 }
%struct.anon.13 = type { ptr, ptr }
%struct.anon.14 = type { ptr, ptr }
%union.anon.15 = type { %struct.QTailQLink }
%struct.BlockJobInfoMirror = type { i8 }
%struct.BlockJobInfo = type { i32, ptr, i64, i64, i8, i8, i64, i32, i8, i32, i8, i8, ptr, %union.anon.24 }
%union.anon.24 = type { %struct.BlockJobInfoMirror }

@.str.1 = private unnamed_addr constant [23 x i8] c"../qemu/block/mirror.c\00", align 1
@__func__.mirror_query = private unnamed_addr constant [13 x i8] c"mirror_query\00", align 1

; Function Attrs: nounwind sspstrong uwtable
define internal void @mirror_query(ptr noundef %job, ptr noundef %info) #0 {
entry:
  %job.addr = alloca ptr, align 8
  %info.addr = alloca ptr, align 8
  %s = alloca ptr, align 8
  %__mptr = alloca ptr, align 8
  %tmp = alloca ptr, align 8
  %.compoundliteral = alloca %struct.BlockJobInfoMirror, align 1
  %tmp1 = alloca i8, align 1
  %atomic-temp = alloca i8, align 1
  store ptr %job, ptr %job.addr, align 8
  store ptr %info, ptr %info.addr, align 8
  %0 = load ptr, ptr %job.addr, align 8
  store ptr %0, ptr %__mptr, align 8
  %1 = load ptr, ptr %__mptr, align 8
  %add.ptr = getelementptr i8, ptr %1, i64 0
  store ptr %add.ptr, ptr %tmp, align 8
  %2 = load ptr, ptr %tmp, align 8
  store ptr %2, ptr %s, align 8
  %3 = load ptr, ptr %info.addr, align 8
  %u = getelementptr inbounds %struct.BlockJobInfo, ptr %3, i32 0, i32 13
  %actively_synced = getelementptr inbounds %struct.BlockJobInfoMirror, ptr %.compoundliteral, i32 0, i32 0
  br label %while.cond

while.cond:                                       ; preds = %do.end, %entry
  br i1 false, label %while.body, label %while.end

while.body:                                       ; preds = %while.cond
  br label %do.body

do.body:                                          ; preds = %while.body
  call void @g_assertion_message_expr(ptr noundef null, ptr noundef @.str.1, i32 noundef 1311, ptr noundef @__func__.mirror_query, ptr noundef null) #11
  unreachable

do.end:                                           ; No predecessors!
  br label %while.cond

while.end:                                        ; preds = %while.cond
  %4 = load ptr, ptr %s, align 8
  %actively_synced2 = getelementptr inbounds %struct.MirrorBlockJob, ptr %4, i32 0, i32 14
  %5 = load atomic i8, ptr %actively_synced2 monotonic, align 8
  store i8 %5, ptr %atomic-temp, align 1
  %6 = load i8, ptr %atomic-temp, align 1
  %tobool = trunc i8 %6 to i1
  %frombool = zext i1 %tobool to i8
  store i8 %frombool, ptr %tmp1, align 1
  %7 = load i8, ptr %tmp1, align 1
  %tobool3 = trunc i8 %7 to i1
  %frombool4 = zext i1 %tobool3 to i8
  store i8 %frombool4, ptr %actively_synced, align 1
  call void @llvm.memcpy.p0.p0.i64(ptr align 8 %u, ptr align 1 %.compoundliteral, i64 1, i1 false)
  ret void
}