; Function Attrs: mustprogress nofree norecurse nounwind sspstrong willreturn memory(argmem: readwrite) uwtable
define internal void @mirror_query(ptr noundef readonly captures(none) %job, ptr noundef writeonly captures(none) initializes((72, 73)) %info) #8 {
entry:
  %u = getelementptr inbounds nuw i8, ptr %info, i64 72
  %actively_synced2 = getelementptr inbounds nuw i8, ptr %job, i64 600
  %0 = load atomic i8, ptr %actively_synced2 monotonic, align 8
  %frombool = and i8 %0, 1
  store i8 %frombool, ptr %u, align 8
  ret void
}